target datalayout = "e-m:e-p270:32:32-p271:32:32-p272:64:64-i64:64-i128:128-f80:128-n8:16:32:64-S128"
target triple = "x86_64-pc-linux-gnu"

%"struct.duckdb_libpgquery::PGFuncCall" = type { i32, ptr, ptr, ptr, ptr, i8, i8, i8, i8, i32, i8, ptr, i32 }

; Function Attrs: mustprogress uwtable
define hidden noundef ptr @_ZN17duckdb_libpgquery12makeFuncCallEPNS_6PGListES1_i(ptr noundef %0, ptr noundef %1, i32 noundef %2) #0 {
  %4 = alloca ptr, align 8
  %5 = alloca ptr, align 8
  %6 = alloca i32, align 4
  %7 = alloca ptr, align 8
  store ptr %0, ptr %4, align 8, !tbaa !7
  store ptr %1, ptr %5, align 8, !tbaa !7
  store i32 %2, ptr %6, align 4, !tbaa !12
  call void @llvm.lifetime.start.p0(i64 8, ptr %7) #3
  %8 = call noundef ptr @_ZN17duckdb_libpgquery7newNodeEmNS_9PGNodeTagE(i64 noundef 72, i32 noundef 356)
  store ptr %8, ptr %7, align 8, !tbaa !68
  %9 = load ptr, ptr %4, align 8, !tbaa !7
  %10 = load ptr, ptr %7, align 8, !tbaa !68
  %11 = getelementptr inbounds nuw %"struct.duckdb_libpgquery::PGFuncCall", ptr %10, i32 0, i32 1
  store ptr %9, ptr %11, align 8, !tbaa !70
  %12 = load ptr, ptr %5, align 8, !tbaa !7
  %13 = load ptr, ptr %7, align 8, !tbaa !68
  %14 = getelementptr inbounds nuw %"struct.duckdb_libpgquery::PGFuncCall", ptr %13, i32 0, i32 2
  store ptr %12, ptr %14, align 8, !tbaa !74
  %15 = load ptr, ptr %7, align 8, !tbaa !68
  %16 = getelementptr inbounds nuw %"struct.duckdb_libpgquery::PGFuncCall", ptr %15, i32 0, i32 3
  store ptr null, ptr %16, align 8, !tbaa !75
  %17 = load ptr, ptr %7, align 8, !tbaa !68
  %18 = getelementptr inbounds nuw %"struct.duckdb_libpgquery::PGFuncCall", ptr %17, i32 0, i32 4
  store ptr null, ptr %18, align 8, !tbaa !76
  %19 = load ptr, ptr %7, align 8, !tbaa !68
  %20 = getelementptr inbounds nuw %"struct.duckdb_libpgquery::PGFuncCall", ptr %19, i32 0, i32 6
  store i8 0, ptr %20, align 1, !tbaa !77
  %21 = load ptr, ptr %7, align 8, !tbaa !68
  %22 = getelementptr inbounds nuw %"struct.duckdb_libpgquery::PGFuncCall", ptr %21, i32 0, i32 7
  store i8 0, ptr %22, align 2, !tbaa !78
  %23 = load ptr, ptr %7, align 8, !tbaa !68
  %24 = getelementptr inbounds nuw %"struct.duckdb_libpgquery::PGFuncCall", ptr %23, i32 0, i32 8
  store i8 0, ptr %24, align 1, !tbaa !79
  %25 = load ptr, ptr %7, align 8, !tbaa !68
  %26 = getelementptr inbounds nuw %"struct.duckdb_libpgquery::PGFuncCall", ptr %25, i32 0, i32 10
  store i8 0, ptr %26, align 8, !tbaa !80
  %27 = load ptr, ptr %7, align 8, !tbaa !68
  %28 = getelementptr inbounds nuw %"struct.duckdb_libpgquery::PGFuncCall", ptr %27, i32 0, i32 11
  store ptr null, ptr %28, align 8, !tbaa !81
  %29 = load i32, ptr %6, align 4, !tbaa !12
  %30 = load ptr, ptr %7, align 8, !tbaa !68
  %31 = getelementptr inbounds nuw %"struct.duckdb_libpgquery::PGFuncCall", ptr %30, i32 0, i32 12
  store i32 %29, ptr %31, align 8, !tbaa !82
  %32 = load ptr, ptr %7, align 8, !tbaa !68
  call void @llvm.lifetime.end.p0(i64 8, ptr %7) #3
  ret ptr %32
}