; Function Attrs: mustprogress uwtable
define hidden noundef ptr @_ZN17duckdb_libpgquery12makeFuncCallEPNS_6PGListES1_i(ptr noundef %0, ptr noundef %1, i32 noundef %2) local_unnamed_addr #0 {
  %4 = tail call noundef ptr @_ZN17duckdb_libpgquery7newNodeEmNS_9PGNodeTagE(i64 noundef 72, i32 noundef 356)
  %5 = getelementptr inbounds nuw i8, ptr %4, i64 8
  store ptr %0, ptr %5, align 8, !tbaa !50
  %6 = getelementptr inbounds nuw i8, ptr %4, i64 16
  store ptr %1, ptr %6, align 8, !tbaa !54
  %7 = getelementptr inbounds nuw i8, ptr %4, i64 24
  %8 = getelementptr inbounds nuw i8, ptr %4, i64 41
  store i8 0, ptr %8, align 1, !tbaa !55
  %9 = getelementptr inbounds nuw i8, ptr %4, i64 42
  store i8 0, ptr %9, align 2, !tbaa !56
  %10 = getelementptr inbounds nuw i8, ptr %4, i64 43
  store i8 0, ptr %10, align 1, !tbaa !57
  %11 = getelementptr inbounds nuw i8, ptr %4, i64 48
  store i8 0, ptr %11, align 8, !tbaa !58
  %12 = getelementptr inbounds nuw i8, ptr %4, i64 56
  store ptr null, ptr %12, align 8, !tbaa !59
  %13 = getelementptr inbounds nuw i8, ptr %4, i64 64
  tail call void @llvm.memset.p0.i64(ptr noundef nonnull align 8 dereferenceable(16) %7, i8 0, i64 16, i1 false)
  store i32 %2, ptr %13, align 8, !tbaa !60
  ret ptr %4
}